target datalayout = "e-m:e-p270:32:32-p271:32:32-p272:64:64-i64:64-i128:128-f80:128-n8:16:32:64-S128"
target triple = "x86_64-pc-linux-gnu"

%struct.varattrib_1b = type { i8, [0 x i8] }
%struct.varattrib_1b_e = type { i8, i8, [0 x i8] }
%struct.anon = type { i32, [0 x i8] }

@.str = private unnamed_addr constant [22 x i8] c"invalid Datum pointer\00", align 1
@.str.1 = private unnamed_addr constant [8 x i8] c"datum.c\00", align 1
@__func__.datumGetSize = private unnamed_addr constant [13 x i8] c"datumGetSize\00", align 1
@.str.2 = private unnamed_addr constant [19 x i8] c"invalid typLen: %d\00", align 1

; Function Attrs: inlinehint nounwind uwtable
define internal ptr @DatumGetPointer(i64 noundef %0) #2 {
  %2 = alloca i64, align 8
  store i64 %0, ptr %2, align 8
  %3 = load i64, ptr %2, align 8
  %4 = inttoptr i64 %3 to ptr
  ret ptr %4
}

; Function Attrs: nounwind uwtable
define dso_local i64 @datumGetSize(i64 noundef %0, i1 noundef zeroext %1, i32 noundef %2) #0 {
  %4 = alloca i64, align 8
  %5 = alloca i8, align 1
  %6 = alloca i32, align 4
  %7 = alloca i64, align 8
  %8 = alloca ptr, align 8
  %9 = alloca ptr, align 8
  store i64 %0, ptr %4, align 8
  %10 = zext i1 %1 to i8
  store i8 %10, ptr %5, align 1
  store i32 %2, ptr %6, align 4
  call void @llvm.lifetime.start.p0(i64 8, ptr %7) #7
  %11 = load i8, ptr %5, align 1, !range !4, !noundef !5
  %12 = trunc i8 %11 to i1
  br i1 %12, label %13, label %16

13:                                               ; preds = %3
  %14 = load i32, ptr %6, align 4
  %15 = sext i32 %14 to i64
  store i64 %15, ptr %7, align 8
  br label %139

16:                                               ; preds = %3
  %17 = load i32, ptr %6, align 4
  %18 = icmp sgt i32 %17, 0
  br i1 %18, label %19, label %22

19:                                               ; preds = %16
  %20 = load i32, ptr %6, align 4
  %21 = sext i32 %20 to i64
  store i64 %21, ptr %7, align 8
  br label %138

22:                                               ; preds = %16
  %23 = load i32, ptr %6, align 4
  %24 = icmp eq i32 %23, -1
  br i1 %24, label %25, label %100

25:                                               ; preds = %22
  call void @llvm.lifetime.start.p0(i64 8, ptr %8) #7
  %26 = load i64, ptr %4, align 8
  %27 = call ptr @DatumGetPointer(i64 noundef %26)
  store ptr %27, ptr %8, align 8
  %28 = load ptr, ptr %8, align 8
  %29 = icmp ne ptr %28, null
  br i1 %29, label %42, label %30

30:                                               ; preds = %25
  br label %31

31:                                               ; preds = %30
  br i1 true, label %32, label %34

32:                                               ; preds = %31
  %33 = call zeroext i1 @errstart_cold(i32 noundef 21, ptr noundef null) #8
  br i1 %33, label %36, label %39

34:                                               ; preds = %31
  %35 = call zeroext i1 @errstart(i32 noundef 21, ptr noundef null)
  br i1 %35, label %36, label %39

36:                                               ; preds = %34, %32
  %37 = call i32 @errcode(i32 noundef 130)
  %38 = call i32 (ptr, ...) @errmsg(ptr noundef @.str)
  call void @errfinish(ptr noundef @.str.1, i32 noundef 90, ptr noundef @__func__.datumGetSize)
  br label %39

39:                                               ; preds = %36, %34, %32
  unreachable

40:                                               ; No predecessors!
  br label %41

41:                                               ; preds = %40
  br label %42

42:                                               ; preds = %41, %25
  %43 = load ptr, ptr %8, align 8
  %44 = getelementptr inbounds nuw %struct.varattrib_1b, ptr %43, i32 0, i32 0
  %45 = load i8, ptr %44, align 1
  %46 = zext i8 %45 to i32
  %47 = icmp eq i32 %46, 1
  br i1 %47, label %48, label %75

48:                                               ; preds = %42
  %49 = load ptr, ptr %8, align 8
  %50 = getelementptr inbounds nuw %struct.varattrib_1b_e, ptr %49, i32 0, i32 1
  %51 = load i8, ptr %50, align 1
  %52 = zext i8 %51 to i32
  %53 = icmp eq i32 %52, 1
  br i1 %53, label %54, label %55

54:                                               ; preds = %48
  br label %72

55:                                               ; preds = %48
  %56 = load ptr, ptr %8, align 8
  %57 = getelementptr inbounds nuw %struct.varattrib_1b_e, ptr %56, i32 0, i32 1
  %58 = load i8, ptr %57, align 1
  %59 = zext i8 %58 to i32
  %60 = and i32 %59, -2
  %61 = icmp eq i32 %60, 2
  br i1 %61, label %62, label %63

62:                                               ; preds = %55
  br label %70

63:                                               ; preds = %55
  %64 = load ptr, ptr %8, align 8
  %65 = getelementptr inbounds nuw %struct.varattrib_1b_e, ptr %64, i32 0, i32 1
  %66 = load i8, ptr %65, align 1
  %67 = zext i8 %66 to i32
  %68 = icmp eq i32 %67, 18
  %69 = select i1 %68, i64 16, i64 0
  br label %70

70:                                               ; preds = %63, %62
  %71 = phi i64 [ 8, %62 ], [ %69, %63 ]
  br label %72

72:                                               ; preds = %70, %54
  %73 = phi i64 [ 8, %54 ], [ %71, %70 ]
  %74 = add i64 2, %73
  br label %98

75:                                               ; preds = %42
  %76 = load ptr, ptr %8, align 8
  %77 = getelementptr inbounds nuw %struct.varattrib_1b, ptr %76, i32 0, i32 0
  %78 = load i8, ptr %77, align 1
  %79 = zext i8 %78 to i32
  %80 = and i32 %79, 1
  %81 = icmp eq i32 %80, 1
  br i1 %81, label %82, label %89

82:                                               ; preds = %75
  %83 = load ptr, ptr %8, align 8
  %84 = getelementptr inbounds nuw %struct.varattrib_1b, ptr %83, i32 0, i32 0
  %85 = load i8, ptr %84, align 1
  %86 = zext i8 %85 to i32
  %87 = ashr i32 %86, 1
  %88 = and i32 %87, 127
  br label %95

89:                                               ; preds = %75
  %90 = load ptr, ptr %8, align 8
  %91 = getelementptr inbounds nuw %struct.anon, ptr %90, i32 0, i32 0
  %92 = load i32, ptr %91, align 4
  %93 = lshr i32 %92, 2
  %94 = and i32 %93, 1073741823
  br label %95

95:                                               ; preds = %89, %82
  %96 = phi i32 [ %88, %82 ], [ %94, %89 ]
  %97 = zext i32 %96 to i64
  br label %98

98:                                               ; preds = %95, %72
  %99 = phi i64 [ %74, %72 ], [ %97, %95 ]
  store i64 %99, ptr %7, align 8
  call void @llvm.lifetime.end.p0(i64 8, ptr %8) #7
  br label %137

100:                                              ; preds = %22
  %101 = load i32, ptr %6, align 4
  %102 = icmp eq i32 %101, -2
  br i1 %102, label %103, label %124

103:                                              ; preds = %100
  call void @llvm.lifetime.start.p0(i64 8, ptr %9) #7
  %104 = load i64, ptr %4, align 8
  %105 = call ptr @DatumGetPointer(i64 noundef %104)
  store ptr %105, ptr %9, align 8
  %106 = load ptr, ptr %9, align 8
  %107 = icmp ne ptr %106, null
  br i1 %107, label %120, label %108

108:                                              ; preds = %103
  br label %109

109:                                              ; preds = %108
  br i1 true, label %110, label %112

110:                                              ; preds = %109
  %111 = call zeroext i1 @errstart_cold(i32 noundef 21, ptr noundef null) #8
  br i1 %111, label %114, label %117

112:                                              ; preds = %109
  %113 = call zeroext i1 @errstart(i32 noundef 21, ptr noundef null)
  br i1 %113, label %114, label %117

114:                                              ; preds = %112, %110
  %115 = call i32 @errcode(i32 noundef 130)
  %116 = call i32 (ptr, ...) @errmsg(ptr noundef @.str)
  call void @errfinish(ptr noundef @.str.1, i32 noundef 102, ptr noundef @__func__.datumGetSize)
  br label %117

117:                                              ; preds = %114, %112, %110
  unreachable

118:                                              ; No predecessors!
  br label %119

119:                                              ; preds = %118
  br label %120

120:                                              ; preds = %119, %103
  %121 = load ptr, ptr %9, align 8
  %122 = call i64 @strlen(ptr noundef %121) #9
  %123 = add i64 %122, 1
  store i64 %123, ptr %7, align 8
  call void @llvm.lifetime.end.p0(i64 8, ptr %9) #7
  br label %136

124:                                              ; preds = %100
  br label %125

125:                                              ; preds = %124
  br i1 true, label %126, label %128

126:                                              ; preds = %125
  %127 = call zeroext i1 @errstart_cold(i32 noundef 21, ptr noundef null) #8
  br i1 %127, label %130, label %133

128:                                              ; preds = %125
  %129 = call zeroext i1 @errstart(i32 noundef 21, ptr noundef null)
  br i1 %129, label %130, label %133

130:                                              ; preds = %128, %126
  %131 = load i32, ptr %6, align 4
  %132 = call i32 (ptr, ...) @errmsg_internal(ptr noundef @.str.2, i32 noundef %131)
  call void @errfinish(ptr noundef @.str.1, i32 noundef 108, ptr noundef @__func__.datumGetSize)
  br label %133

133:                                              ; preds = %130, %128, %126
  unreachable

134:                                              ; No predecessors!
  br label %135

135:                                              ; preds = %134
  store i64 0, ptr %7, align 8
  br label %136

136:                                              ; preds = %135, %120
  br label %137

137:                                              ; preds = %136, %98
  br label %138

138:                                              ; preds = %137, %19
  br label %139

139:                                              ; preds = %138, %13
  %140 = load i64, ptr %7, align 8
  call void @llvm.lifetime.end.p0(i64 8, ptr %7) #7
  ret i64 %140
}