; Function Attrs: nounwind uwtable
define dso_local i64 @datumGetSize(i64 noundef %0, i1 noundef zeroext %1, i32 noundef %2) local_unnamed_addr #0 {
  br i1 %1, label %4, label %6

4:                                                ; preds = %3
  %5 = sext i32 %2 to i64
  br label %52

6:                                                ; preds = %3
  %7 = icmp sgt i32 %2, 0
  br i1 %7, label %8, label %10

8:                                                ; preds = %6
  %9 = zext nneg i32 %2 to i64
  br label %52

10:                                               ; preds = %6
  switch i32 %2, label %49 [
    i32 -1, label %11
    i32 -2, label %40
  ]

11:                                               ; preds = %10
  %12 = inttoptr i64 %0 to ptr
  %.not24 = icmp eq i64 %0, 0
  br i1 %.not24, label %13, label %17

13:                                               ; preds = %11
  %14 = tail call zeroext i1 @errstart_cold(i32 noundef 21, ptr noundef null) #8
  tail call void @llvm.assume(i1 %14)
  %15 = tail call i32 @errcode(i32 noundef 130) #9
  %16 = tail call i32 (ptr, ...) @errmsg(ptr noundef nonnull @.str) #9
  tail call void @errfinish(ptr noundef nonnull @.str.1, i32 noundef 90, ptr noundef nonnull @__func__.datumGetSize) #9
  unreachable

17:                                               ; preds = %11
  %18 = load i8, ptr %12, align 1
  %19 = zext i8 %18 to i32
  %20 = icmp eq i8 %18, 1
  br i1 %20, label %21, label %30

21:                                               ; preds = %17
  %22 = getelementptr inbounds nuw i8, ptr %12, i64 1
  %23 = load i8, ptr %22, align 1
  %24 = icmp eq i8 %23, 1
  %25 = and i8 %23, -2
  %26 = icmp eq i8 %25, 2
  %or.cond = or i1 %24, %26
  %27 = icmp eq i8 %23, 18
  %28 = select i1 %27, i64 18, i64 2
  %29 = select i1 %or.cond, i64 10, i64 %28
  br label %52

30:                                               ; preds = %17
  %31 = and i32 %19, 1
  %.not25 = icmp eq i32 %31, 0
  br i1 %.not25, label %34, label %32

32:                                               ; preds = %30
  %33 = lshr i32 %19, 1
  br label %37

34:                                               ; preds = %30
  %35 = load i32, ptr %12, align 4
  %36 = lshr i32 %35, 2
  br label %37

37:                                               ; preds = %34, %32
  %38 = phi i32 [ %33, %32 ], [ %36, %34 ]
  %39 = zext nneg i32 %38 to i64
  br label %52

40:                                               ; preds = %10
  %.not = icmp eq i64 %0, 0
  br i1 %.not, label %41, label %45

41:                                               ; preds = %40
  %42 = tail call zeroext i1 @errstart_cold(i32 noundef 21, ptr noundef null) #8
  tail call void @llvm.assume(i1 %42)
  %43 = tail call i32 @errcode(i32 noundef 130) #9
  %44 = tail call i32 (ptr, ...) @errmsg(ptr noundef nonnull @.str) #9
  tail call void @errfinish(ptr noundef nonnull @.str.1, i32 noundef 102, ptr noundef nonnull @__func__.datumGetSize) #9
  unreachable

45:                                               ; preds = %40
  %46 = inttoptr i64 %0 to ptr
  %47 = tail call i64 @strlen(ptr noundef nonnull dereferenceable(1) %46) #10
  %48 = add i64 %47, 1
  br label %52

49:                                               ; preds = %10
  %50 = tail call zeroext i1 @errstart_cold(i32 noundef 21, ptr noundef null) #8
  tail call void @llvm.assume(i1 %50)
  %51 = tail call i32 (ptr, ...) @errmsg_internal(ptr noundef nonnull @.str.2, i32 noundef %2) #9
  tail call void @errfinish(ptr noundef nonnull @.str.1, i32 noundef 108, ptr noundef nonnull @__func__.datumGetSize) #9
  unreachable

52:                                               ; preds = %21, %37, %8, %45, %4
  %.0 = phi i64 [ %5, %4 ], [ %9, %8 ], [ %48, %45 ], [ %29, %21 ], [ %39, %37 ]
  ret i64 %.0
}